; Function Attrs: nounwind uwtable
define ptr @l_Lean_LocalContext_getAt_x3f(ptr noundef %0, ptr noundef %1) local_unnamed_addr #2 {
  %3 = getelementptr inbounds nuw i8, ptr %0, i64 16
  %4 = load ptr, ptr %3, align 8, !tbaa !9
  %5 = ptrtoint ptr %4 to i64
  %6 = and i64 %5, 1
  %.not = icmp eq i64 %6, 0
  br i1 %.not, label %7, label %lean_inc.exit18

7:                                                ; preds = %2
  %.val.i = load i32, ptr %4, align 4, !tbaa !4
  %8 = icmp sgt i32 %.val.i, 0
  br i1 %8, label %9, label %11, !prof !11

9:                                                ; preds = %7
  %10 = add nuw i32 %.val.i, 1
  store i32 %10, ptr %4, align 4, !tbaa !4
  br label %lean_inc.exit18

11:                                               ; preds = %7
  %.not.i23 = icmp eq i32 %.val.i, 0
  br i1 %.not.i23, label %lean_inc.exit18, label %12

12:                                               ; preds = %11
  tail call void @lean_inc_ref_cold(ptr noundef nonnull %4) #8
  br label %lean_inc.exit18

lean_inc.exit18:                                  ; preds = %12, %11, %9, %2
  %13 = ptrtoint ptr %0 to i64
  %14 = and i64 %13, 1
  %.not30 = icmp eq i64 %14, 0
  br i1 %.not30, label %15, label %lean_dec.exit17

15:                                               ; preds = %lean_inc.exit18
  %16 = load i32, ptr %0, align 4, !tbaa !4
  %17 = icmp sgt i32 %16, 1
  br i1 %17, label %18, label %20, !prof !11

18:                                               ; preds = %15
  %19 = add nsw i32 %16, -1
  store i32 %19, ptr %0, align 4, !tbaa !4
  br label %lean_dec.exit17

20:                                               ; preds = %15
  %.not.i = icmp eq i32 %16, 0
  br i1 %.not.i, label %lean_dec.exit17, label %21

21:                                               ; preds = %20
  tail call void @lean_dec_ref_cold(ptr noundef nonnull %0) #8
  br label %lean_dec.exit17

lean_dec.exit17:                                  ; preds = %21, %20, %18, %lean_inc.exit18
  %22 = getelementptr inbounds nuw i8, ptr %4, i64 24
  %23 = load ptr, ptr %22, align 8, !tbaa !9
  %24 = ptrtoint ptr %23 to i64
  %25 = and i64 %24, 1
  %.not31 = icmp eq i64 %25, 0
  br i1 %.not31, label %26, label %lean_inc.exit.thread

26:                                               ; preds = %lean_dec.exit17
  %.val.i24 = load i32, ptr %23, align 4, !tbaa !4
  %27 = icmp sgt i32 %.val.i24, 0
  br i1 %27, label %28, label %30, !prof !11

28:                                               ; preds = %26
  %29 = add nuw i32 %.val.i24, 1
  store i32 %29, ptr %23, align 4, !tbaa !4
  br label %lean_inc.exit

30:                                               ; preds = %26
  %.not.i25 = icmp eq i32 %.val.i24, 0
  br i1 %.not.i25, label %lean_inc.exit, label %31

31:                                               ; preds = %30
  tail call void @lean_inc_ref_cold(ptr noundef nonnull %23) #8
  br label %lean_inc.exit

lean_inc.exit:                                    ; preds = %31, %30, %28
  %32 = tail call zeroext i1 @lean_nat_big_lt(ptr noundef %1, ptr noundef nonnull %23) #8
  %33 = load i32, ptr %23, align 4, !tbaa !4
  %34 = icmp sgt i32 %33, 1
  br i1 %34, label %39, label %41, !prof !11

lean_inc.exit.thread:                             ; preds = %lean_dec.exit17
  %35 = ptrtoint ptr %1 to i64
  %36 = and i64 %35, 1
  %.not33 = icmp eq i64 %36, 0
  br i1 %.not33, label %lean_nat_lt.exit.thread28, label %lean_nat_lt.exit.thread, !prof !17

lean_nat_lt.exit.thread28:                        ; preds = %lean_inc.exit.thread
  %37 = tail call zeroext i1 @lean_nat_big_lt(ptr noundef %1, ptr noundef %23) #8
  br i1 %37, label %52, label %43

lean_nat_lt.exit.thread:                          ; preds = %lean_inc.exit.thread
  %38 = icmp ult ptr %1, %23
  br i1 %38, label %52, label %43

39:                                               ; preds = %lean_inc.exit
  %40 = add nsw i32 %33, -1
  store i32 %40, ptr %23, align 4, !tbaa !4
  br i1 %32, label %52, label %43

41:                                               ; preds = %lean_inc.exit
  %.not.i19 = icmp eq i32 %33, 0
  br i1 %.not.i19, label %lean_dec.exit16, label %42

42:                                               ; preds = %41
  tail call void @lean_dec_ref_cold(ptr noundef nonnull %23) #8
  br i1 %32, label %52, label %43

lean_dec.exit16:                                  ; preds = %41
  br i1 %32, label %52, label %43

43:                                               ; preds = %42, %39, %lean_nat_lt.exit.thread28, %lean_nat_lt.exit.thread, %lean_dec.exit16
  br i1 %.not, label %44, label %lean_dec.exit

44:                                               ; preds = %43
  %45 = load i32, ptr %4, align 4, !tbaa !4
  %46 = icmp sgt i32 %45, 1
  br i1 %46, label %47, label %49, !prof !11

47:                                               ; preds = %44
  %48 = add nsw i32 %45, -1
  store i32 %48, ptr %4, align 4, !tbaa !4
  br label %lean_dec.exit

49:                                               ; preds = %44
  %.not.i21 = icmp eq i32 %45, 0
  br i1 %.not.i21, label %lean_dec.exit, label %50

50:                                               ; preds = %49
  tail call void @lean_dec_ref_cold(ptr noundef nonnull %4) #8
  br label %lean_dec.exit

lean_dec.exit:                                    ; preds = %50, %49, %47, %43
  %51 = tail call ptr @l_outOfBounds___rarg(ptr noundef nonnull inttoptr (i64 1 to ptr)) #8
  br label %54

52:                                               ; preds = %42, %39, %lean_nat_lt.exit.thread28, %lean_nat_lt.exit.thread, %lean_dec.exit16
  %53 = tail call ptr @l_Lean_PersistentArray_get_x21___rarg(ptr noundef nonnull inttoptr (i64 1 to ptr), ptr noundef nonnull %4, ptr noundef %1) #8
  br label %54

54:                                               ; preds = %52, %lean_dec.exit
  %.0 = phi ptr [ %51, %lean_dec.exit ], [ %53, %52 ]
  ret ptr %.0
}